; Function Attrs: mustprogress uwtable
define noundef zeroext i1 @_ZNK8QuantLib10IborCoupon8hasFixedEv(ptr noundef nonnull align 8 dereferenceable(248) %this) local_unnamed_addr #8 align 2 personality ptr @__gxx_personality_v0 {
entry:
  %ref.tmp.i = alloca %"class.QuantLib::Date", align 8
  %0 = load atomic i8, ptr @_ZGVZN8QuantLib9SingletonINS_8SettingsESt17integral_constantIbLb0EEE8instanceEvE8instance acquire, align 8
  %guard.uninitialized.i = icmp eq i8 %0, 0
  br i1 %guard.uninitialized.i, label %init.check.i, label %_ZN8QuantLib9SingletonINS_8SettingsESt17integral_constantIbLb0EEE8instanceEv.exit, !prof !7

init.check.i:                                     ; preds = %entry
  %1 = tail call i32 @__cxa_guard_acquire(ptr nonnull @_ZGVZN8QuantLib9SingletonINS_8SettingsESt17integral_constantIbLb0EEE8instanceEvE8instance) #29
  %tobool.not.i = icmp eq i32 %1, 0
  br i1 %tobool.not.i, label %_ZN8QuantLib9SingletonINS_8SettingsESt17integral_constantIbLb0EEE8instanceEv.exit, label %init.i

init.i:                                           ; preds = %init.check.i
  invoke void @_ZN8QuantLib8SettingsC1Ev(ptr noundef nonnull align 8 dereferenceable(28) @_ZZN8QuantLib9SingletonINS_8SettingsESt17integral_constantIbLb0EEE8instanceEvE8instance)
          to label %invoke.cont.i unwind label %lpad.i

invoke.cont.i:                                    ; preds = %init.i
  %2 = tail call i32 @__cxa_atexit(ptr nonnull @_ZN8QuantLib8SettingsD2Ev, ptr nonnull @_ZZN8QuantLib9SingletonINS_8SettingsESt17integral_constantIbLb0EEE8instanceEvE8instance, ptr nonnull @__dso_handle) #29
  tail call void @__cxa_guard_release(ptr nonnull @_ZGVZN8QuantLib9SingletonINS_8SettingsESt17integral_constantIbLb0EEE8instanceEvE8instance) #29
  br label %_ZN8QuantLib9SingletonINS_8SettingsESt17integral_constantIbLb0EEE8instanceEv.exit

common.resume:                                    ; preds = %lpad.i6, %lpad.i
  %common.resume.op = phi { ptr, i32 } [ %3, %lpad.i ], [ %10, %lpad.i6 ]
  resume { ptr, i32 } %common.resume.op

lpad.i:                                           ; preds = %init.i
  %3 = landingpad { ptr, i32 }
          cleanup
  tail call void @__cxa_guard_abort(ptr nonnull @_ZGVZN8QuantLib9SingletonINS_8SettingsESt17integral_constantIbLb0EEE8instanceEvE8instance) #29
  br label %common.resume

_ZN8QuantLib9SingletonINS_8SettingsESt17integral_constantIbLb0EEE8instanceEv.exit: ; preds = %entry, %init.check.i, %invoke.cont.i
  call void @llvm.lifetime.start.p0(i64 8, ptr nonnull %ref.tmp.i) #29
  call void @_ZN8QuantLib4DateC1Ev(ptr noundef nonnull align 8 dereferenceable(8) %ref.tmp.i)
  %4 = load i64, ptr @_ZZN8QuantLib9SingletonINS_8SettingsESt17integral_constantIbLb0EEE8instanceEvE8instance, align 8, !tbaa !43
  %5 = load i64, ptr %ref.tmp.i, align 8, !tbaa !73
  %cmp.i.i = icmp eq i64 %4, %5
  call void @llvm.lifetime.end.p0(i64 8, ptr nonnull %ref.tmp.i) #29
  br i1 %cmp.i.i, label %if.then.i, label %_ZNK8QuantLib8Settings9DateProxycvNS_4DateEEv.exit

if.then.i:                                        ; preds = %_ZN8QuantLib9SingletonINS_8SettingsESt17integral_constantIbLb0EEE8instanceEv.exit
  %call3.i = call i64 @_ZN8QuantLib4Date10todaysDateEv()
  br label %_ZNK8QuantLib8Settings9DateProxycvNS_4DateEEv.exit

_ZNK8QuantLib8Settings9DateProxycvNS_4DateEEv.exit: ; preds = %_ZN8QuantLib9SingletonINS_8SettingsESt17integral_constantIbLb0EEE8instanceEv.exit, %if.then.i
  %retval.sroa.0.0.i = phi i64 [ %call3.i, %if.then.i ], [ %4, %_ZN8QuantLib9SingletonINS_8SettingsESt17integral_constantIbLb0EEE8instanceEv.exit ]
  %fixingDate_ = getelementptr inbounds nuw i8, ptr %this, i64 192
  %6 = load i64, ptr %fixingDate_, align 8, !tbaa !73
  %cmp.i = icmp sgt i64 %6, %retval.sroa.0.0.i
  br i1 %cmp.i, label %cleanup, label %if.else

if.else:                                          ; preds = %_ZNK8QuantLib8Settings9DateProxycvNS_4DateEEv.exit
  %cmp.i1 = icmp slt i64 %6, %retval.sroa.0.0.i
  br i1 %cmp.i1, label %cleanup, label %if.else8

if.else8:                                         ; preds = %if.else
  %7 = load atomic i8, ptr @_ZGVZN8QuantLib9SingletonINS_8SettingsESt17integral_constantIbLb0EEE8instanceEvE8instance acquire, align 8
  %guard.uninitialized.i2 = icmp eq i8 %7, 0
  br i1 %guard.uninitialized.i2, label %init.check.i3, label %_ZN8QuantLib9SingletonINS_8SettingsESt17integral_constantIbLb0EEE8instanceEv.exit8, !prof !7

init.check.i3:                                    ; preds = %if.else8
  %8 = call i32 @__cxa_guard_acquire(ptr nonnull @_ZGVZN8QuantLib9SingletonINS_8SettingsESt17integral_constantIbLb0EEE8instanceEvE8instance) #29
  %tobool.not.i4 = icmp eq i32 %8, 0
  br i1 %tobool.not.i4, label %_ZN8QuantLib9SingletonINS_8SettingsESt17integral_constantIbLb0EEE8instanceEv.exit8, label %init.i5

init.i5:                                          ; preds = %init.check.i3
  invoke void @_ZN8QuantLib8SettingsC1Ev(ptr noundef nonnull align 8 dereferenceable(28) @_ZZN8QuantLib9SingletonINS_8SettingsESt17integral_constantIbLb0EEE8instanceEvE8instance)
          to label %invoke.cont.i7 unwind label %lpad.i6

invoke.cont.i7:                                   ; preds = %init.i5
  %9 = call i32 @__cxa_atexit(ptr nonnull @_ZN8QuantLib8SettingsD2Ev, ptr nonnull @_ZZN8QuantLib9SingletonINS_8SettingsESt17integral_constantIbLb0EEE8instanceEvE8instance, ptr nonnull @__dso_handle) #29
  call void @__cxa_guard_release(ptr nonnull @_ZGVZN8QuantLib9SingletonINS_8SettingsESt17integral_constantIbLb0EEE8instanceEvE8instance) #29
  br label %_ZN8QuantLib9SingletonINS_8SettingsESt17integral_constantIbLb0EEE8instanceEv.exit8

lpad.i6:                                          ; preds = %init.i5
  %10 = landingpad { ptr, i32 }
          cleanup
  call void @__cxa_guard_abort(ptr nonnull @_ZGVZN8QuantLib9SingletonINS_8SettingsESt17integral_constantIbLb0EEE8instanceEvE8instance) #29
  br label %common.resume

_ZN8QuantLib9SingletonINS_8SettingsESt17integral_constantIbLb0EEE8instanceEv.exit8: ; preds = %if.else8, %init.check.i3, %invoke.cont.i7
  %11 = load i8, ptr getelementptr inbounds nuw (i8, ptr @_ZZN8QuantLib9SingletonINS_8SettingsESt17integral_constantIbLb0EEE8instanceEvE8instance, i64 27), align 1, !tbaa !74, !range !26, !noundef !27
  %loadedv = trunc nuw i8 %11 to i1
  br i1 %loadedv, label %cleanup, label %if.else12

if.else12:                                        ; preds = %_ZN8QuantLib9SingletonINS_8SettingsESt17integral_constantIbLb0EEE8instanceEv.exit8
  %index_ = getelementptr inbounds nuw i8, ptr %this, i64 88
  %12 = load ptr, ptr %index_, align 8, !tbaa !55
  %cmp.not.i = icmp eq ptr %12, null
  br i1 %cmp.not.i, label %cond.false.i, label %_ZNK5boost10shared_ptrIN8QuantLib17InterestRateIndexEEptEv.exit, !prof !75

cond.false.i:                                     ; preds = %if.else12
  call void @_ZN5boost16assertion_failedEPKcS1_S1_l(ptr noundef nonnull @.str.14, ptr noundef nonnull @__PRETTY_FUNCTION__._ZNK5boost10shared_ptrIN8QuantLib17InterestRateIndexEEptEv, ptr noundef nonnull @.str.15, i64 noundef 784)
  %.pre.i = load ptr, ptr %index_, align 8, !tbaa !55
  br label %_ZNK5boost10shared_ptrIN8QuantLib17InterestRateIndexEEptEv.exit

_ZNK5boost10shared_ptrIN8QuantLib17InterestRateIndexEEptEv.exit: ; preds = %if.else12, %cond.false.i
  %13 = phi ptr [ %12, %if.else12 ], [ %.pre.i, %cond.false.i ]
  %call15 = call noundef zeroext i1 @_ZNK8QuantLib5Index19hasHistoricalFixingERKNS_4DateE(ptr noundef nonnull align 8 dereferenceable(112) %13, ptr noundef nonnull align 8 dereferenceable(8) %fixingDate_)
  br label %cleanup

cleanup:                                          ; preds = %_ZN8QuantLib9SingletonINS_8SettingsESt17integral_constantIbLb0EEE8instanceEv.exit8, %if.else, %_ZNK8QuantLib8Settings9DateProxycvNS_4DateEEv.exit, %_ZNK5boost10shared_ptrIN8QuantLib17InterestRateIndexEEptEv.exit
  %retval.0 = phi i1 [ %call15, %_ZNK5boost10shared_ptrIN8QuantLib17InterestRateIndexEEptEv.exit ], [ false, %_ZNK8QuantLib8Settings9DateProxycvNS_4DateEEv.exit ], [ true, %if.else ], [ true, %_ZN8QuantLib9SingletonINS_8SettingsESt17integral_constantIbLb0EEE8instanceEv.exit8 ]
  ret i1 %retval.0
}